target datalayout = "e-m:e-p270:32:32-p271:32:32-p272:64:64-i64:64-i128:128-f80:128-n8:16:32:64-S128"
target triple = "x86_64-pc-linux-gnu"

%struct.ForEachState = type { ptr, i32 }
%union.ListCell = type { ptr }
%struct.RestrictInfo = type { i32, ptr, i8, i8, i8, i8, i8, i8, i32, i32, i32, ptr, ptr, ptr, ptr, ptr, ptr, ptr, i32, ptr, %struct.QualCost, double, double, ptr, ptr, ptr, ptr, ptr, ptr, i8, i32, double, double, double, double, i32, i32 }
%struct.QualCost = type { double, double }
%struct.List = type { i32, i32, i32, ptr, [0 x %union.ListCell] }
%struct.EquivalenceClass = type { i32, ptr, i32, ptr, ptr, ptr, ptr, i8, i8, i8, i32, i32, i32, ptr }

; Function Attrs: nounwind uwtable
define dso_local ptr @find_derived_clause_for_ec_member(ptr noundef %0, ptr noundef %1) #0 {
  %3 = alloca ptr, align 8
  %4 = alloca ptr, align 8
  %5 = alloca ptr, align 8
  %6 = alloca ptr, align 8
  %7 = alloca %struct.ForEachState, align 8
  %8 = alloca i32, align 4
  %9 = alloca ptr, align 8
  store ptr %0, ptr %4, align 8
  store ptr %1, ptr %5, align 8
  call void @llvm.lifetime.start.p0(i64 8, ptr %6) #6
  call void @llvm.lifetime.start.p0(i64 16, ptr %7) #6
  %10 = getelementptr inbounds nuw %struct.ForEachState, ptr %7, i32 0, i32 0
  %11 = load ptr, ptr %4, align 8
  %12 = getelementptr inbounds nuw %struct.EquivalenceClass, ptr %11, i32 0, i32 5
  %13 = load ptr, ptr %12, align 8
  store ptr %13, ptr %10, align 8
  %14 = getelementptr inbounds nuw %struct.ForEachState, ptr %7, i32 0, i32 1
  store i32 0, ptr %14, align 8
  %15 = getelementptr i8, ptr %7, i64 12
  call void @llvm.memset.p0.i64(ptr align 4 %15, i8 0, i64 4, i1 false)
  br label %16

16:                                               ; preds = %56, %2
  %17 = getelementptr inbounds nuw %struct.ForEachState, ptr %7, i32 0, i32 0
  %18 = load ptr, ptr %17, align 8
  %19 = icmp ne ptr %18, null
  br i1 %19, label %20, label %37

20:                                               ; preds = %16
  %21 = getelementptr inbounds nuw %struct.ForEachState, ptr %7, i32 0, i32 1
  %22 = load i32, ptr %21, align 8
  %23 = getelementptr inbounds nuw %struct.ForEachState, ptr %7, i32 0, i32 0
  %24 = load ptr, ptr %23, align 8
  %25 = getelementptr inbounds nuw %struct.List, ptr %24, i32 0, i32 1
  %26 = load i32, ptr %25, align 4
  %27 = icmp slt i32 %22, %26
  br i1 %27, label %28, label %37

28:                                               ; preds = %20
  %29 = getelementptr inbounds nuw %struct.ForEachState, ptr %7, i32 0, i32 0
  %30 = load ptr, ptr %29, align 8
  %31 = getelementptr inbounds nuw %struct.List, ptr %30, i32 0, i32 3
  %32 = load ptr, ptr %31, align 8
  %33 = getelementptr inbounds nuw %struct.ForEachState, ptr %7, i32 0, i32 1
  %34 = load i32, ptr %33, align 8
  %35 = sext i32 %34 to i64
  %36 = getelementptr inbounds %union.ListCell, ptr %32, i64 %35
  store ptr %36, ptr %6, align 8
  br label %38

37:                                               ; preds = %20, %16
  store ptr null, ptr %6, align 8
  br label %38

38:                                               ; preds = %37, %28
  %39 = phi i32 [ 1, %28 ], [ 0, %37 ]
  %40 = icmp ne i32 %39, 0
  br i1 %40, label %42, label %41

41:                                               ; preds = %38
  store i32 2, ptr %8, align 4
  br label %60

42:                                               ; preds = %38
  call void @llvm.lifetime.start.p0(i64 8, ptr %9) #6
  %43 = load ptr, ptr %6, align 8
  %44 = load ptr, ptr %43, align 8
  store ptr %44, ptr %9, align 8
  %45 = load ptr, ptr %9, align 8
  %46 = getelementptr inbounds nuw %struct.RestrictInfo, ptr %45, i32 0, i32 26
  %47 = load ptr, ptr %46, align 8
  %48 = load ptr, ptr %5, align 8
  %49 = icmp eq ptr %47, %48
  br i1 %49, label %50, label %52

50:                                               ; preds = %42
  %51 = load ptr, ptr %9, align 8
  store ptr %51, ptr %3, align 8
  store i32 1, ptr %8, align 4
  br label %53

52:                                               ; preds = %42
  store i32 0, ptr %8, align 4
  br label %53

53:                                               ; preds = %52, %50
  call void @llvm.lifetime.end.p0(i64 8, ptr %9) #6
  %54 = load i32, ptr %8, align 4
  switch i32 %54, label %60 [
    i32 0, label %55
  ]

55:                                               ; preds = %53
  br label %56

56:                                               ; preds = %55
  %57 = getelementptr inbounds nuw %struct.ForEachState, ptr %7, i32 0, i32 1
  %58 = load i32, ptr %57, align 8
  %59 = add i32 %58, 1
  store i32 %59, ptr %57, align 8
  br label %16, !llvm.loop !53

60:                                               ; preds = %53, %41
  call void @llvm.lifetime.end.p0(i64 16, ptr %7) #6
  %61 = load i32, ptr %8, align 4
  switch i32 %61, label %63 [
    i32 2, label %62
  ]

62:                                               ; preds = %60
  store ptr null, ptr %3, align 8
  store i32 1, ptr %8, align 4
  br label %63

63:                                               ; preds = %62, %60
  call void @llvm.lifetime.end.p0(i64 8, ptr %6) #6
  %64 = load ptr, ptr %3, align 8
  ret ptr %64
}