; Function Attrs: nofree norecurse nosync nounwind memory(read, inaccessiblemem: none) uwtable
define dso_local ptr @find_derived_clause_for_ec_member(ptr noundef readonly captures(none) %0, ptr noundef readnone captures(address) %1) local_unnamed_addr #4 {
  %3 = getelementptr inbounds nuw i8, ptr %0, i64 40
  %4 = load ptr, ptr %3, align 8
  %5 = getelementptr inbounds nuw i8, ptr %4, i64 16
  %.not = icmp eq ptr %4, null
  br i1 %.not, label %._crit_edge25, label %.lr.ph

.lr.ph:                                           ; preds = %2
  %6 = getelementptr inbounds nuw i8, ptr %4, i64 4
  %7 = load i32, ptr %6, align 4
  %8 = icmp sgt i32 %7, 0
  br i1 %8, label %.lr.ph32, label %._crit_edge25

.lr.ph32:                                         ; preds = %.lr.ph
  %9 = load ptr, ptr %5, align 8
  %wide.trip.count = zext nneg i32 %7 to i64
  br label %11

10:                                               ; preds = %11
  %indvars.iv.next = add nuw nsw i64 %indvars.iv, 1
  %exitcond.not = icmp eq i64 %indvars.iv.next, %wide.trip.count
  br i1 %exitcond.not, label %._crit_edge25, label %11

11:                                               ; preds = %.lr.ph32, %10
  %indvars.iv = phi i64 [ 0, %.lr.ph32 ], [ %indvars.iv.next, %10 ]
  %12 = getelementptr inbounds nuw %union.ListCell, ptr %9, i64 %indvars.iv
  %13 = load ptr, ptr %12, align 8
  %14 = getelementptr inbounds nuw i8, ptr %13, i64 168
  %15 = load ptr, ptr %14, align 8
  %.not17 = icmp eq ptr %15, %1
  br i1 %.not17, label %._crit_edge25, label %10

._crit_edge25:                                    ; preds = %11, %10, %.lr.ph, %2
  %16 = phi ptr [ null, %2 ], [ null, %.lr.ph ], [ null, %10 ], [ %13, %11 ]
  ret ptr %16
}